; Function Attrs: nounwind uwtable
define range(i32 -20, 1) i32 @IDAGetCurrentOrder(ptr noundef readonly %0, ptr noundef writeonly captures(none) %1) local_unnamed_addr #0 {
  %3 = icmp eq ptr %0, null
  br i1 %3, label %4, label %5

4:                                                ; preds = %2
  tail call void (ptr, i32, i32, ptr, ptr, ptr, ...) @IDAProcessError(ptr noundef null, i32 noundef -20, i32 noundef 1256, ptr noundef nonnull @__func__.IDAGetCurrentOrder, ptr noundef nonnull @.str, ptr noundef nonnull @.str.1) #9
  br label %8

5:                                                ; preds = %2
  %6 = getelementptr inbounds nuw i8, ptr %0, i64 1208
  %7 = load i32, ptr %6, align 8
  store i32 %7, ptr %1, align 4
  br label %8

8:                                                ; preds = %5, %4
  %.0 = phi i32 [ -20, %4 ], [ 0, %5 ]
  ret i32 %.0
}